Certificate:
    Data:
        Version: 3 (0x2)
        Serial Number: 2 (0x2)
    Signature Algorithm: sha1WithRSAEncryption
        Issuer: C=US, ST=NH, L=Durham, O=University of New Hampshire, OU=changeme, CN=InfoSec/name=InfoSec/emailAddress=info@helpdesk
        Validity
            Not Before: Mar 14 01:25:21 2014 GMT
            Not After : Mar 11 01:25:21 2024 GMT
        Subject: C=US, ST=NH, L=Durham, O=University of New Hampshire, OU=changeme, CN=client/name=InfoSec/emailAddress=info@helpdesk
        Subject Public Key Info:
            Public Key Algorithm: rsaEncryption
                Public-Key: (1024 bit)
                Modulus:
                    00:d5:8c:83:17:90:20:9e:1e:3e:7f:af:87:f5:19:
                    ab:80:75:fe:e7:07:d9:d6:09:30:e7:a0:87:7d:11:
                    8a:24:55:59:9a:b3:8a:2b:0d:1a:3a:df:b2:61:d5:
                    9d:ea:ea:1c:f0:57:26:62:cc:16:1f:d1:1d:79:7b:
                    95:ab:50:07:8b:ea:07:7c:64:51:7c:bc:a3:31:61:
                    8a:4a:1b:20:36:57:2b:6b:66:e9:be:1e:70:0f:35:
                    cd:d3:16:61:73:73:ef:27:09:2b:09:46:38:8b:0e:
                    a2:43:f5:77:f9:10:15:51:01:c7:e9:79:85:d7:4f:
                    1b:22:a0:d2:2a:af:c4:a5:57
                Exponent: 65537 (0x10001)
        X509v3 extensions:
            X509v3 Basic Constraints: 
                CA:FALSE
            Netscape Comment: 
                Easy-RSA Generated Certificate
            X509v3 Subject Key Identifier: 
                A3:45:76:1F:4C:09:A2:FE:AB:24:9E:20:67:F2:69:40:38:69:C6:ED
            X509v3 Authority Key Identifier: 
                keyid:5C:AA:CC:64:3B:CE:60:0F:90:CB:0A:00:D0:02:5A:13:D4:A9:94:53
                DirName:/C=US/ST=NH/L=Durham/O=University of New Hampshire/OU=changeme/CN=InfoSec/name=InfoSec/emailAddress=info@helpdesk
                serial:B7:6C:93:58:02:68:19:D8

            X509v3 Extended Key Usage: 
                TLS Web Client Authentication
            X509v3 Key Usage: 
                Digital Signature
    Signature Algorithm: sha1WithRSAEncryption
         3e:38:14:84:ba:5f:b6:8f:d2:7b:ab:4f:fc:7c:34:3f:b0:3d:
         a6:d3:04:44:8b:c4:58:43:e6:b6:6d:ce:b3:4a:4f:d6:30:ca:
         6c:fd:0d:ce:e0:70:6f:d9:32:e4:84:05:18:89:77:eb:1b:4c:
         79:eb:42:5a:f4:7c:17:6d:85:82:0a:fc:3d:4a:db:68:54:59:
         fa:09:2c:4d:92:df:22:61:30:d6:fe:0d:63:a6:08:73:71:b0:
         0a:ae:7f:41:81:46:5f:4b:f2:e0:82:cb:d5:ff:ee:a2:19:18:
         8d:e3:c2:5c:22:df:78:2e:9a:58:e6:c4:6d:3b:47:42:e7:32:
         b2:0f
-----BEGIN CERTIFICATE-----
MIIEIjCCA4ugAwIBAgIBAjANBgkqhkiG9w0BAQUFADCBpjELMAkGA1UEBhMCVVMx
CzAJBgNVBAgTAk5IMQ8wDQYDVQQHEwZEdXJoYW0xJDAiBgNVBAoTG1VuaXZlcnNp
dHkgb2YgTmV3IEhhbXBzaGlyZTERMA8GA1UECxMIY2hhbmdlbWUxEDAOBgNVBAMT
B0luZm9TZWMxEDAOBgNVBCkTB0luZm9TZWMxHDAaBgkqhkiG9w0BCQEWDWluZm9A
aGVscGRlc2swHhcNMTQwMzE0MDEyNTIxWhcNMjQwMzExMDEyNTIxWjCBpTELMAkG
A1UEBhMCVVMxCzAJBgNVBAgTAk5IMQ8wDQYDVQQHEwZEdXJoYW0xJDAiBgNVBAoT
G1VuaXZlcnNpdHkgb2YgTmV3IEhhbXBzaGlyZTERMA8GA1UECxMIY2hhbmdlbWUx
DzANBgNVBAMTBmNsaWVudDEQMA4GA1UEKRMHSW5mb1NlYzEcMBoGCSqGSIb3DQEJ
ARYNaW5mb0BoZWxwZGVzazCBnzANBgkqhkiG9w0BAQEFAAOBjQAwgYkCgYEA1YyD
F5Agnh4+f6+H9RmrgHX+5wfZ1gkw56CHfRGKJFVZmrOKKw0aOt+yYdWd6uoc8Fcm
YswWH9EdeXuVq1AHi+oHfGRRfLyjMWGKShsgNlcra2bpvh5wDzXN0xZhc3PvJwkr
CUY4iw6iQ/V3+RAVUQHH6XmF108bIqDSKq/EpVcCAwEAAaOCAV0wggFZMAkGA1Ud
EwQCMAAwLQYJYIZIAYb4QgENBCAWHkVhc3ktUlNBIEdlbmVyYXRlZCBDZXJ0aWZp
Y2F0ZTAdBgNVHQ4EFgQUo0V2H0wJov6rJJ4gZ/JpQDhpxu0wgdsGA1UdIwSB0zCB
0IAUXKrMZDvOYA+QywoA0AJaE9SplFOhgaykgakwgaYxCzAJBgNVBAYTAlVTMQsw
CQYDVQQIEwJOSDEPMA0GA1UEBxMGRHVyaGFtMSQwIgYDVQQKExtVbml2ZXJzaXR5
IG9mIE5ldyBIYW1wc2hpcmUxETAPBgNVBAsTCGNoYW5nZW1lMRAwDgYDVQQDEwdJ
bmZvU2VjMRAwDgYDVQQpEwdJbmZvU2VjMRwwGgYJKoZIhvcNAQkBFg1pbmZvQGhl
bHBkZXNrggkAt2yTWAJoGdgwEwYDVR0lBAwwCgYIKwYBBQUHAwIwCwYDVR0PBAQD
AgeAMA0GCSqGSIb3DQEBBQUAA4GBAD44FIS6X7aP0nurT/x8ND+wPabTBESLxFhD
5rZtzrNKT9Ywymz9Dc7gcG/ZMuSEBRiJd+sbTHnrQlr0fBdthYIK/D1K22hUWfoJ
LE2S3yJhMNb+DWOmCHNxsAquf0GBRl9L8uCCy9X/7qIZGI3jwlwi33gumljmxG07
R0LnMrIP
-----END CERTIFICATE-----
